target datalayout = "e-m:e-p270:32:32-p271:32:32-p272:64:64-i64:64-i128:128-f80:128-n8:16:32:64-S128"
target triple = "x86_64-pc-linux-gnu"

@_ZTI18AbsRndNumGenerator = external constant ptr
@_ZTI18DFSRndNumGenerator = external constant ptr

; Function Attrs: mustprogress uwtable
define dso_local noundef i32 @_ZN9DepthSpec12backtrackingEi(i32 noundef %0) #5 align 2 {
  %2 = alloca i32, align 4
  %3 = alloca i32, align 4
  %4 = alloca ptr, align 8
  %5 = alloca i32, align 4
  store i32 %0, ptr %3, align 4, !tbaa !4
  call void @llvm.lifetime.start.p0(i64 8, ptr %4) #3
  %6 = call noundef ptr @_ZN12RandomNumber18GetRndNumGeneratorEv()
  %7 = icmp eq ptr %6, null
  br i1 %7, label %10, label %8

8:                                                ; preds = %1
  %9 = call ptr @__dynamic_cast(ptr %6, ptr @_ZTI18AbsRndNumGenerator, ptr @_ZTI18DFSRndNumGenerator, i64 0) #3
  br label %11

10:                                               ; preds = %1
  br label %11

11:                                               ; preds = %10, %8
  %12 = phi ptr [ %9, %8 ], [ null, %10 ]
  store ptr %12, ptr %4, align 8, !tbaa !21
  %13 = load ptr, ptr %4, align 8, !tbaa !21
  %14 = load i32, ptr %3, align 4, !tbaa !4
  %15 = call noundef zeroext i1 @_ZN18DFSRndNumGenerator18eager_backtrackingEi(ptr noundef nonnull align 8 dereferenceable(96) %13, i32 noundef %14)
  br i1 %15, label %16, label %17

16:                                               ; preds = %11
  store i32 -1, ptr %2, align 4
  store i32 1, ptr %5, align 4
  br label %18

17:                                               ; preds = %11
  store i32 0, ptr %2, align 4
  store i32 1, ptr %5, align 4
  br label %18

18:                                               ; preds = %17, %16
  call void @llvm.lifetime.end.p0(i64 8, ptr %4) #3
  %19 = load i32, ptr %2, align 4
  ret i32 %19
}