; Function Attrs: mustprogress uwtable
define dso_local noundef range(i32 -1, 1) i32 @_ZN9DepthSpec12backtrackingEi(i32 noundef %0) local_unnamed_addr #4 align 2 {
  %2 = tail call noundef ptr @_ZN12RandomNumber18GetRndNumGeneratorEv()
  %3 = icmp ne ptr %2, null
  tail call void @llvm.assume(i1 %3)
  %4 = tail call ptr @__dynamic_cast(ptr nonnull %2, ptr nonnull @_ZTI18AbsRndNumGenerator, ptr nonnull @_ZTI18DFSRndNumGenerator, i64 0) #14
  %5 = tail call noundef zeroext i1 @_ZN18DFSRndNumGenerator18eager_backtrackingEi(ptr noundef nonnull align 8 dereferenceable(96) %4, i32 noundef %0)
  %.0 = sext i1 %5 to i32
  ret i32 %.0
}